target datalayout = "e-m:e-p270:32:32-p271:32:32-p272:64:64-i64:64-i128:128-f80:128-n8:16:32:64-S128"
target triple = "x86_64-pc-linux-gnu"

%struct.ARKodeButcherTableMem = type { i32, i32, i32, ptr, ptr, ptr, ptr }

; Function Attrs: nounwind uwtable
define void @ARKodeButcherTable_Free(ptr noundef %0) #0 {
  %2 = alloca ptr, align 8
  %3 = alloca i32, align 4
  store ptr %0, ptr %2, align 8, !tbaa !7
  call void @llvm.lifetime.start.p0(i64 4, ptr %3) #7
  %4 = load ptr, ptr %2, align 8, !tbaa !7
  %5 = icmp ne ptr %4, null
  br i1 %5, label %6, label %72

6:                                                ; preds = %1
  %7 = load ptr, ptr %2, align 8, !tbaa !7
  %8 = getelementptr inbounds nuw %struct.ARKodeButcherTableMem, ptr %7, i32 0, i32 6
  %9 = load ptr, ptr %8, align 8, !tbaa !16
  %10 = icmp ne ptr %9, null
  br i1 %10, label %11, label %15

11:                                               ; preds = %6
  %12 = load ptr, ptr %2, align 8, !tbaa !7
  %13 = getelementptr inbounds nuw %struct.ARKodeButcherTableMem, ptr %12, i32 0, i32 6
  %14 = load ptr, ptr %13, align 8, !tbaa !16
  call void @free(ptr noundef %14) #7
  br label %15

15:                                               ; preds = %11, %6
  %16 = load ptr, ptr %2, align 8, !tbaa !7
  %17 = getelementptr inbounds nuw %struct.ARKodeButcherTableMem, ptr %16, i32 0, i32 4
  %18 = load ptr, ptr %17, align 8, !tbaa !15
  %19 = icmp ne ptr %18, null
  br i1 %19, label %20, label %24

20:                                               ; preds = %15
  %21 = load ptr, ptr %2, align 8, !tbaa !7
  %22 = getelementptr inbounds nuw %struct.ARKodeButcherTableMem, ptr %21, i32 0, i32 4
  %23 = load ptr, ptr %22, align 8, !tbaa !15
  call void @free(ptr noundef %23) #7
  br label %24

24:                                               ; preds = %20, %15
  %25 = load ptr, ptr %2, align 8, !tbaa !7
  %26 = getelementptr inbounds nuw %struct.ARKodeButcherTableMem, ptr %25, i32 0, i32 5
  %27 = load ptr, ptr %26, align 8, !tbaa !14
  %28 = icmp ne ptr %27, null
  br i1 %28, label %29, label %33

29:                                               ; preds = %24
  %30 = load ptr, ptr %2, align 8, !tbaa !7
  %31 = getelementptr inbounds nuw %struct.ARKodeButcherTableMem, ptr %30, i32 0, i32 5
  %32 = load ptr, ptr %31, align 8, !tbaa !14
  call void @free(ptr noundef %32) #7
  br label %33

33:                                               ; preds = %29, %24
  %34 = load ptr, ptr %2, align 8, !tbaa !7
  %35 = getelementptr inbounds nuw %struct.ARKodeButcherTableMem, ptr %34, i32 0, i32 3
  %36 = load ptr, ptr %35, align 8, !tbaa !10
  %37 = icmp ne ptr %36, null
  br i1 %37, label %38, label %70

38:                                               ; preds = %33
  store i32 0, ptr %3, align 4, !tbaa !3
  br label %39

39:                                               ; preds = %63, %38
  %40 = load i32, ptr %3, align 4, !tbaa !3
  %41 = load ptr, ptr %2, align 8, !tbaa !7
  %42 = getelementptr inbounds nuw %struct.ARKodeButcherTableMem, ptr %41, i32 0, i32 2
  %43 = load i32, ptr %42, align 8, !tbaa !17
  %44 = icmp slt i32 %40, %43
  br i1 %44, label %45, label %66

45:                                               ; preds = %39
  %46 = load ptr, ptr %2, align 8, !tbaa !7
  %47 = getelementptr inbounds nuw %struct.ARKodeButcherTableMem, ptr %46, i32 0, i32 3
  %48 = load ptr, ptr %47, align 8, !tbaa !10
  %49 = load i32, ptr %3, align 4, !tbaa !3
  %50 = sext i32 %49 to i64
  %51 = getelementptr inbounds ptr, ptr %48, i64 %50
  %52 = load ptr, ptr %51, align 8, !tbaa !18
  %53 = icmp ne ptr %52, null
  br i1 %53, label %54, label %62

54:                                               ; preds = %45
  %55 = load ptr, ptr %2, align 8, !tbaa !7
  %56 = getelementptr inbounds nuw %struct.ARKodeButcherTableMem, ptr %55, i32 0, i32 3
  %57 = load ptr, ptr %56, align 8, !tbaa !10
  %58 = load i32, ptr %3, align 4, !tbaa !3
  %59 = sext i32 %58 to i64
  %60 = getelementptr inbounds ptr, ptr %57, i64 %59
  %61 = load ptr, ptr %60, align 8, !tbaa !18
  call void @free(ptr noundef %61) #7
  br label %62

62:                                               ; preds = %54, %45
  br label %63

63:                                               ; preds = %62
  %64 = load i32, ptr %3, align 4, !tbaa !3
  %65 = add nsw i32 %64, 1
  store i32 %65, ptr %3, align 4, !tbaa !3
  br label %39

66:                                               ; preds = %39
  %67 = load ptr, ptr %2, align 8, !tbaa !7
  %68 = getelementptr inbounds nuw %struct.ARKodeButcherTableMem, ptr %67, i32 0, i32 3
  %69 = load ptr, ptr %68, align 8, !tbaa !10
  call void @free(ptr noundef %69) #7
  br label %70

70:                                               ; preds = %66, %33
  %71 = load ptr, ptr %2, align 8, !tbaa !7
  call void @free(ptr noundef %71) #7
  br label %72

72:                                               ; preds = %70, %1
  call void @llvm.lifetime.end.p0(i64 4, ptr %3) #7
  ret void
}