; Function Attrs: nounwind uwtable
define void @ARKodeButcherTable_Free(ptr noundef captures(address_is_null) %0) local_unnamed_addr #0 {
  %.not = icmp eq ptr %0, null
  br i1 %.not, label %31, label %2

2:                                                ; preds = %1
  %3 = getelementptr inbounds nuw i8, ptr %0, i64 40
  %4 = load ptr, ptr %3, align 8, !tbaa !15
  %.not21 = icmp eq ptr %4, null
  br i1 %.not21, label %6, label %5

5:                                                ; preds = %2
  tail call void @free(ptr noundef nonnull %4) #17
  br label %6

6:                                                ; preds = %5, %2
  %7 = getelementptr inbounds nuw i8, ptr %0, i64 24
  %8 = load ptr, ptr %7, align 8, !tbaa !14
  %.not22 = icmp eq ptr %8, null
  br i1 %.not22, label %10, label %9

9:                                                ; preds = %6
  tail call void @free(ptr noundef nonnull %8) #17
  br label %10

10:                                               ; preds = %9, %6
  %11 = getelementptr inbounds nuw i8, ptr %0, i64 32
  %12 = load ptr, ptr %11, align 8, !tbaa !13
  %.not23 = icmp eq ptr %12, null
  br i1 %.not23, label %14, label %13

13:                                               ; preds = %10
  tail call void @free(ptr noundef nonnull %12) #17
  br label %14

14:                                               ; preds = %13, %10
  %15 = getelementptr inbounds nuw i8, ptr %0, i64 16
  %16 = load ptr, ptr %15, align 8, !tbaa !11
  %.not24 = icmp eq ptr %16, null
  br i1 %.not24, label %30, label %.preheader

.preheader:                                       ; preds = %14
  %17 = getelementptr inbounds nuw i8, ptr %0, i64 8
  %18 = load i32, ptr %17, align 8, !tbaa !3
  %19 = icmp sgt i32 %18, 0
  br i1 %19, label %.lr.ph, label %._crit_edge

.lr.ph:                                           ; preds = %.preheader, %25
  %20 = phi i32 [ %26, %25 ], [ %18, %.preheader ]
  %indvars.iv = phi i64 [ %indvars.iv.next, %25 ], [ 0, %.preheader ]
  %21 = load ptr, ptr %15, align 8, !tbaa !11
  %22 = getelementptr inbounds nuw ptr, ptr %21, i64 %indvars.iv
  %23 = load ptr, ptr %22, align 8, !tbaa !12
  %.not25 = icmp eq ptr %23, null
  br i1 %.not25, label %25, label %24

24:                                               ; preds = %.lr.ph
  tail call void @free(ptr noundef nonnull %23) #17
  %.pre = load i32, ptr %17, align 8, !tbaa !3
  br label %25

25:                                               ; preds = %.lr.ph, %24
  %26 = phi i32 [ %20, %.lr.ph ], [ %.pre, %24 ]
  %indvars.iv.next = add nuw nsw i64 %indvars.iv, 1
  %27 = sext i32 %26 to i64
  %28 = icmp slt i64 %indvars.iv.next, %27
  br i1 %28, label %.lr.ph, label %._crit_edge.loopexit

._crit_edge.loopexit:                             ; preds = %25
  %.pre28 = load ptr, ptr %15, align 8, !tbaa !11
  br label %._crit_edge

._crit_edge:                                      ; preds = %._crit_edge.loopexit, %.preheader
  %29 = phi ptr [ %.pre28, %._crit_edge.loopexit ], [ %16, %.preheader ]
  tail call void @free(ptr noundef %29) #17
  br label %30

30:                                               ; preds = %._crit_edge, %14
  tail call void @free(ptr noundef nonnull %0) #17
  br label %31

31:                                               ; preds = %30, %1
  ret void
}